target datalayout = "e-m:e-p270:32:32-p271:32:32-p272:64:64-i64:64-i128:128-f80:128-n8:16:32:64-S128"
target triple = "x86_64-pc-linux-gnu"

%struct._XSettingsSetting = type { ptr, i32, %union.anon.1, i64 }
%union.anon.1 = type { ptr }

; Function Attrs: nounwind uwtable
define hidden ptr @xsettings_setting_copy(ptr noundef %0) #0 {
  %2 = alloca ptr, align 8
  %3 = alloca ptr, align 8
  %4 = alloca ptr, align 8
  %5 = alloca i64, align 8
  %6 = alloca i32, align 4
  store ptr %0, ptr %3, align 8
  call void @llvm.lifetime.start.p0(i64 8, ptr %4) #6
  call void @llvm.lifetime.start.p0(i64 8, ptr %5) #6
  %7 = call noalias ptr @malloc(i64 noundef 32) #7
  store ptr %7, ptr %4, align 8
  %8 = load ptr, ptr %4, align 8
  %9 = icmp ne ptr %8, null
  br i1 %9, label %11, label %10

10:                                               ; preds = %1
  store ptr null, ptr %2, align 8
  store i32 1, ptr %6, align 4
  br label %96

11:                                               ; preds = %1
  %12 = load ptr, ptr %3, align 8
  %13 = getelementptr inbounds nuw %struct._XSettingsSetting, ptr %12, i32 0, i32 0
  %14 = load ptr, ptr %13, align 8
  %15 = call i64 @strlen(ptr noundef %14) #8
  store i64 %15, ptr %5, align 8
  %16 = load i64, ptr %5, align 8
  %17 = add i64 %16, 1
  %18 = call noalias ptr @malloc(i64 noundef %17) #7
  %19 = load ptr, ptr %4, align 8
  %20 = getelementptr inbounds nuw %struct._XSettingsSetting, ptr %19, i32 0, i32 0
  store ptr %18, ptr %20, align 8
  %21 = load ptr, ptr %4, align 8
  %22 = getelementptr inbounds nuw %struct._XSettingsSetting, ptr %21, i32 0, i32 0
  %23 = load ptr, ptr %22, align 8
  %24 = icmp ne ptr %23, null
  br i1 %24, label %26, label %25

25:                                               ; preds = %11
  br label %85

26:                                               ; preds = %11
  %27 = load ptr, ptr %4, align 8
  %28 = getelementptr inbounds nuw %struct._XSettingsSetting, ptr %27, i32 0, i32 0
  %29 = load ptr, ptr %28, align 8
  %30 = load ptr, ptr %3, align 8
  %31 = getelementptr inbounds nuw %struct._XSettingsSetting, ptr %30, i32 0, i32 0
  %32 = load ptr, ptr %31, align 8
  %33 = load i64, ptr %5, align 8
  %34 = add i64 %33, 1
  call void @llvm.memcpy.p0.p0.i64(ptr align 1 %29, ptr align 1 %32, i64 %34, i1 false)
  %35 = load ptr, ptr %3, align 8
  %36 = getelementptr inbounds nuw %struct._XSettingsSetting, ptr %35, i32 0, i32 1
  %37 = load i32, ptr %36, align 8
  %38 = load ptr, ptr %4, align 8
  %39 = getelementptr inbounds nuw %struct._XSettingsSetting, ptr %38, i32 0, i32 1
  store i32 %37, ptr %39, align 8
  %40 = load ptr, ptr %3, align 8
  %41 = getelementptr inbounds nuw %struct._XSettingsSetting, ptr %40, i32 0, i32 1
  %42 = load i32, ptr %41, align 8
  switch i32 %42, label %78 [
    i32 0, label %43
    i32 2, label %49
    i32 1, label %54
  ]

43:                                               ; preds = %26
  %44 = load ptr, ptr %3, align 8
  %45 = getelementptr inbounds nuw %struct._XSettingsSetting, ptr %44, i32 0, i32 2
  %46 = load i32, ptr %45, align 8
  %47 = load ptr, ptr %4, align 8
  %48 = getelementptr inbounds nuw %struct._XSettingsSetting, ptr %47, i32 0, i32 2
  store i32 %46, ptr %48, align 8
  br label %78

49:                                               ; preds = %26
  %50 = load ptr, ptr %4, align 8
  %51 = getelementptr inbounds nuw %struct._XSettingsSetting, ptr %50, i32 0, i32 2
  %52 = load ptr, ptr %3, align 8
  %53 = getelementptr inbounds nuw %struct._XSettingsSetting, ptr %52, i32 0, i32 2
  call void @llvm.memcpy.p0.p0.i64(ptr align 8 %51, ptr align 8 %53, i64 8, i1 false)
  br label %78

54:                                               ; preds = %26
  %55 = load ptr, ptr %3, align 8
  %56 = getelementptr inbounds nuw %struct._XSettingsSetting, ptr %55, i32 0, i32 2
  %57 = load ptr, ptr %56, align 8
  %58 = call i64 @strlen(ptr noundef %57) #8
  store i64 %58, ptr %5, align 8
  %59 = load i64, ptr %5, align 8
  %60 = add i64 %59, 1
  %61 = call noalias ptr @malloc(i64 noundef %60) #7
  %62 = load ptr, ptr %4, align 8
  %63 = getelementptr inbounds nuw %struct._XSettingsSetting, ptr %62, i32 0, i32 2
  store ptr %61, ptr %63, align 8
  %64 = load ptr, ptr %4, align 8
  %65 = getelementptr inbounds nuw %struct._XSettingsSetting, ptr %64, i32 0, i32 2
  %66 = load ptr, ptr %65, align 8
  %67 = icmp ne ptr %66, null
  br i1 %67, label %69, label %68

68:                                               ; preds = %54
  br label %85

69:                                               ; preds = %54
  %70 = load ptr, ptr %4, align 8
  %71 = getelementptr inbounds nuw %struct._XSettingsSetting, ptr %70, i32 0, i32 2
  %72 = load ptr, ptr %71, align 8
  %73 = load ptr, ptr %3, align 8
  %74 = getelementptr inbounds nuw %struct._XSettingsSetting, ptr %73, i32 0, i32 2
  %75 = load ptr, ptr %74, align 8
  %76 = load i64, ptr %5, align 8
  %77 = add i64 %76, 1
  call void @llvm.memcpy.p0.p0.i64(ptr align 1 %72, ptr align 1 %75, i64 %77, i1 false)
  br label %78

78:                                               ; preds = %26, %69, %49, %43
  %79 = load ptr, ptr %3, align 8
  %80 = getelementptr inbounds nuw %struct._XSettingsSetting, ptr %79, i32 0, i32 3
  %81 = load i64, ptr %80, align 8
  %82 = load ptr, ptr %4, align 8
  %83 = getelementptr inbounds nuw %struct._XSettingsSetting, ptr %82, i32 0, i32 3
  store i64 %81, ptr %83, align 8
  %84 = load ptr, ptr %4, align 8
  store ptr %84, ptr %2, align 8
  store i32 1, ptr %6, align 4
  br label %96

85:                                               ; preds = %68, %25
  %86 = load ptr, ptr %4, align 8
  %87 = getelementptr inbounds nuw %struct._XSettingsSetting, ptr %86, i32 0, i32 0
  %88 = load ptr, ptr %87, align 8
  %89 = icmp ne ptr %88, null
  br i1 %89, label %90, label %94

90:                                               ; preds = %85
  %91 = load ptr, ptr %4, align 8
  %92 = getelementptr inbounds nuw %struct._XSettingsSetting, ptr %91, i32 0, i32 0
  %93 = load ptr, ptr %92, align 8
  call void @free(ptr noundef %93) #6
  br label %94

94:                                               ; preds = %90, %85
  %95 = load ptr, ptr %4, align 8
  call void @free(ptr noundef %95) #6
  store ptr null, ptr %2, align 8
  store i32 1, ptr %6, align 4
  br label %96

96:                                               ; preds = %94, %78, %10
  call void @llvm.lifetime.end.p0(i64 8, ptr %5) #6
  call void @llvm.lifetime.end.p0(i64 8, ptr %4) #6
  %97 = load ptr, ptr %2, align 8
  ret ptr %97
}