; Function Attrs: mustprogress nounwind willreturn uwtable
define hidden noalias noundef ptr @xsettings_setting_copy(ptr noundef readonly captures(none) %0) local_unnamed_addr #7 {
  %2 = tail call noalias dereferenceable_or_null(32) ptr @malloc(i64 noundef 32) #15
  %.not = icmp eq ptr %2, null
  br i1 %.not, label %33, label %3

3:                                                ; preds = %1
  %4 = load ptr, ptr %0, align 8
  %5 = tail call i64 @strlen(ptr noundef nonnull dereferenceable(1) %4) #16
  %6 = add i64 %5, 1
  %7 = tail call noalias ptr @malloc(i64 noundef %6) #15
  store ptr %7, ptr %2, align 8
  %.not32 = icmp eq ptr %7, null
  br i1 %.not32, label %.thread, label %8

8:                                                ; preds = %3
  tail call void @llvm.memcpy.p0.p0.i64(ptr nonnull align 1 %7, ptr nonnull align 1 %4, i64 %6, i1 false)
  %9 = getelementptr inbounds nuw i8, ptr %0, i64 8
  %10 = load i32, ptr %9, align 8
  %11 = getelementptr inbounds nuw i8, ptr %2, i64 8
  store i32 %10, ptr %11, align 8
  switch i32 %10, label %28 [
    i32 0, label %12
    i32 2, label %16
    i32 1, label %20
  ]

12:                                               ; preds = %8
  %13 = getelementptr inbounds nuw i8, ptr %0, i64 16
  %14 = load i32, ptr %13, align 8
  %15 = getelementptr inbounds nuw i8, ptr %2, i64 16
  store i32 %14, ptr %15, align 8
  br label %28

16:                                               ; preds = %8
  %17 = getelementptr inbounds nuw i8, ptr %2, i64 16
  %18 = getelementptr inbounds nuw i8, ptr %0, i64 16
  %19 = load i64, ptr %18, align 8
  store i64 %19, ptr %17, align 8
  br label %28

20:                                               ; preds = %8
  %21 = getelementptr inbounds nuw i8, ptr %0, i64 16
  %22 = load ptr, ptr %21, align 8
  %23 = tail call i64 @strlen(ptr noundef nonnull dereferenceable(1) %22) #16
  %24 = add i64 %23, 1
  %25 = tail call noalias ptr @malloc(i64 noundef %24) #15
  %26 = getelementptr inbounds nuw i8, ptr %2, i64 16
  store ptr %25, ptr %26, align 8
  %.not33 = icmp eq ptr %25, null
  br i1 %.not33, label %32, label %27

27:                                               ; preds = %20
  tail call void @llvm.memcpy.p0.p0.i64(ptr nonnull align 1 %25, ptr nonnull align 1 %22, i64 %24, i1 false)
  br label %28

28:                                               ; preds = %27, %16, %12, %8
  %29 = getelementptr inbounds nuw i8, ptr %0, i64 24
  %30 = load i64, ptr %29, align 8
  %31 = getelementptr inbounds nuw i8, ptr %2, i64 24
  store i64 %30, ptr %31, align 8
  br label %33

32:                                               ; preds = %20
  tail call void @free(ptr noundef nonnull %7) #14
  br label %.thread

.thread:                                          ; preds = %3, %32
  tail call void @free(ptr noundef nonnull %2) #14
  br label %33

33:                                               ; preds = %1, %.thread, %28
  %.0 = phi ptr [ %2, %28 ], [ null, %.thread ], [ null, %1 ]
  ret ptr %.0
}